target datalayout = "e-m:e-p270:32:32-p271:32:32-p272:64:64-i64:64-i128:128-f80:128-n8:16:32:64-S128"
target triple = "x86_64-pc-linux-gnu"

; Function Attrs: mustprogress nounwind uwtable
define noundef i32 @_ZN4Cube11CornerIndexEiii(i32 noundef %0, i32 noundef %1, i32 noundef %2) #1 align 2 {
  %4 = alloca i32, align 4
  %5 = alloca i32, align 4
  %6 = alloca i32, align 4
  store i32 %0, ptr %4, align 4
  store i32 %1, ptr %5, align 4
  store i32 %2, ptr %6, align 4
  %7 = load i32, ptr %6, align 4
  %8 = shl i32 %7, 2
  %9 = load i32, ptr %5, align 4
  %10 = shl i32 %9, 1
  %11 = or i32 %8, %10
  %12 = load i32, ptr %4, align 4
  %13 = or i32 %11, %12
  ret i32 %13
}

; Function Attrs: mustprogress nounwind uwtable
define noundef zeroext i8 @_ZN13MarchingCubes8GetIndexEPKff(ptr noundef %0, float noundef %1) #1 align 2 {
  %3 = alloca ptr, align 8
  %4 = alloca float, align 4
  %5 = alloca i8, align 1
  store ptr %0, ptr %3, align 8
  store float %1, ptr %4, align 4
  store i8 0, ptr %5, align 1
  %6 = load ptr, ptr %3, align 8
  %7 = call noundef i32 @_ZN4Cube11CornerIndexEiii(i32 noundef 0, i32 noundef 0, i32 noundef 0)
  %8 = sext i32 %7 to i64
  %9 = getelementptr inbounds float, ptr %6, i64 %8
  %10 = load float, ptr %9, align 4
  %11 = load float, ptr %4, align 4
  %12 = fcmp olt float %10, %11
  br i1 %12, label %13, label %18

13:                                               ; preds = %2
  %14 = load i8, ptr %5, align 1
  %15 = zext i8 %14 to i32
  %16 = or i32 %15, 1
  %17 = trunc i32 %16 to i8
  store i8 %17, ptr %5, align 1
  br label %18

18:                                               ; preds = %13, %2
  %19 = load ptr, ptr %3, align 8
  %20 = call noundef i32 @_ZN4Cube11CornerIndexEiii(i32 noundef 1, i32 noundef 0, i32 noundef 0)
  %21 = sext i32 %20 to i64
  %22 = getelementptr inbounds float, ptr %19, i64 %21
  %23 = load float, ptr %22, align 4
  %24 = load float, ptr %4, align 4
  %25 = fcmp olt float %23, %24
  br i1 %25, label %26, label %31

26:                                               ; preds = %18
  %27 = load i8, ptr %5, align 1
  %28 = zext i8 %27 to i32
  %29 = or i32 %28, 2
  %30 = trunc i32 %29 to i8
  store i8 %30, ptr %5, align 1
  br label %31

31:                                               ; preds = %26, %18
  %32 = load ptr, ptr %3, align 8
  %33 = call noundef i32 @_ZN4Cube11CornerIndexEiii(i32 noundef 1, i32 noundef 1, i32 noundef 0)
  %34 = sext i32 %33 to i64
  %35 = getelementptr inbounds float, ptr %32, i64 %34
  %36 = load float, ptr %35, align 4
  %37 = load float, ptr %4, align 4
  %38 = fcmp olt float %36, %37
  br i1 %38, label %39, label %44

39:                                               ; preds = %31
  %40 = load i8, ptr %5, align 1
  %41 = zext i8 %40 to i32
  %42 = or i32 %41, 4
  %43 = trunc i32 %42 to i8
  store i8 %43, ptr %5, align 1
  br label %44

44:                                               ; preds = %39, %31
  %45 = load ptr, ptr %3, align 8
  %46 = call noundef i32 @_ZN4Cube11CornerIndexEiii(i32 noundef 0, i32 noundef 1, i32 noundef 0)
  %47 = sext i32 %46 to i64
  %48 = getelementptr inbounds float, ptr %45, i64 %47
  %49 = load float, ptr %48, align 4
  %50 = load float, ptr %4, align 4
  %51 = fcmp olt float %49, %50
  br i1 %51, label %52, label %57

52:                                               ; preds = %44
  %53 = load i8, ptr %5, align 1
  %54 = zext i8 %53 to i32
  %55 = or i32 %54, 8
  %56 = trunc i32 %55 to i8
  store i8 %56, ptr %5, align 1
  br label %57

57:                                               ; preds = %52, %44
  %58 = load ptr, ptr %3, align 8
  %59 = call noundef i32 @_ZN4Cube11CornerIndexEiii(i32 noundef 0, i32 noundef 0, i32 noundef 1)
  %60 = sext i32 %59 to i64
  %61 = getelementptr inbounds float, ptr %58, i64 %60
  %62 = load float, ptr %61, align 4
  %63 = load float, ptr %4, align 4
  %64 = fcmp olt float %62, %63
  br i1 %64, label %65, label %70

65:                                               ; preds = %57
  %66 = load i8, ptr %5, align 1
  %67 = zext i8 %66 to i32
  %68 = or i32 %67, 16
  %69 = trunc i32 %68 to i8
  store i8 %69, ptr %5, align 1
  br label %70

70:                                               ; preds = %65, %57
  %71 = load ptr, ptr %3, align 8
  %72 = call noundef i32 @_ZN4Cube11CornerIndexEiii(i32 noundef 1, i32 noundef 0, i32 noundef 1)
  %73 = sext i32 %72 to i64
  %74 = getelementptr inbounds float, ptr %71, i64 %73
  %75 = load float, ptr %74, align 4
  %76 = load float, ptr %4, align 4
  %77 = fcmp olt float %75, %76
  br i1 %77, label %78, label %83

78:                                               ; preds = %70
  %79 = load i8, ptr %5, align 1
  %80 = zext i8 %79 to i32
  %81 = or i32 %80, 32
  %82 = trunc i32 %81 to i8
  store i8 %82, ptr %5, align 1
  br label %83

83:                                               ; preds = %78, %70
  %84 = load ptr, ptr %3, align 8
  %85 = call noundef i32 @_ZN4Cube11CornerIndexEiii(i32 noundef 1, i32 noundef 1, i32 noundef 1)
  %86 = sext i32 %85 to i64
  %87 = getelementptr inbounds float, ptr %84, i64 %86
  %88 = load float, ptr %87, align 4
  %89 = load float, ptr %4, align 4
  %90 = fcmp olt float %88, %89
  br i1 %90, label %91, label %96

91:                                               ; preds = %83
  %92 = load i8, ptr %5, align 1
  %93 = zext i8 %92 to i32
  %94 = or i32 %93, 64
  %95 = trunc i32 %94 to i8
  store i8 %95, ptr %5, align 1
  br label %96

96:                                               ; preds = %91, %83
  %97 = load ptr, ptr %3, align 8
  %98 = call noundef i32 @_ZN4Cube11CornerIndexEiii(i32 noundef 0, i32 noundef 1, i32 noundef 1)
  %99 = sext i32 %98 to i64
  %100 = getelementptr inbounds float, ptr %97, i64 %99
  %101 = load float, ptr %100, align 4
  %102 = load float, ptr %4, align 4
  %103 = fcmp olt float %101, %102
  br i1 %103, label %104, label %109

104:                                              ; preds = %96
  %105 = load i8, ptr %5, align 1
  %106 = zext i8 %105 to i32
  %107 = or i32 %106, 128
  %108 = trunc i32 %107 to i8
  store i8 %108, ptr %5, align 1
  br label %109

109:                                              ; preds = %104, %96
  %110 = load i8, ptr %5, align 1
  ret i8 %110
}