; Function Attrs: mustprogress nofree norecurse nosync nounwind willreturn memory(argmem: read) uwtable
define noundef zeroext i8 @_ZN13MarchingCubes8GetIndexEPKff(ptr noundef readonly captures(none) %0, float noundef %1) local_unnamed_addr #2 align 2 {
  %3 = load float, ptr %0, align 4
  %4 = fcmp olt float %3, %1
  %.0 = zext i1 %4 to i8
  %5 = getelementptr inbounds nuw i8, ptr %0, i64 4
  %6 = load float, ptr %5, align 4
  %7 = fcmp olt float %6, %1
  %8 = or disjoint i8 %.0, 2
  %.1 = select i1 %7, i8 %8, i8 %.0
  %9 = getelementptr inbounds nuw i8, ptr %0, i64 12
  %10 = load float, ptr %9, align 4
  %11 = fcmp olt float %10, %1
  %12 = or disjoint i8 %.1, 4
  %.2 = select i1 %11, i8 %12, i8 %.1
  %13 = getelementptr inbounds nuw i8, ptr %0, i64 8
  %14 = load float, ptr %13, align 4
  %15 = fcmp olt float %14, %1
  %16 = or disjoint i8 %.2, 8
  %.3 = select i1 %15, i8 %16, i8 %.2
  %17 = getelementptr inbounds nuw i8, ptr %0, i64 16
  %18 = load float, ptr %17, align 4
  %19 = fcmp olt float %18, %1
  %20 = or i8 %.3, 16
  %.4 = select i1 %19, i8 %20, i8 %.3
  %21 = getelementptr inbounds nuw i8, ptr %0, i64 20
  %22 = load float, ptr %21, align 4
  %23 = fcmp olt float %22, %1
  %24 = or i8 %.4, 32
  %.5 = select i1 %23, i8 %24, i8 %.4
  %25 = getelementptr inbounds nuw i8, ptr %0, i64 28
  %26 = load float, ptr %25, align 4
  %27 = fcmp olt float %26, %1
  %28 = or i8 %.5, 64
  %.6 = select i1 %27, i8 %28, i8 %.5
  %29 = getelementptr inbounds nuw i8, ptr %0, i64 24
  %30 = load float, ptr %29, align 4
  %31 = fcmp olt float %30, %1
  %32 = or i8 %.6, -128
  %.7 = select i1 %31, i8 %32, i8 %.6
  ret i8 %.7
}